(iSumoPathFinding.sumoPathFinding.cityMap
CityMap
p0
(dp1
S'vertexes'
p2
(lp3
(iSumoPathFinding.sumoPathFinding.cityMap
Vertex
p4
(dp5
S'sumo_id'
p6
S'24'
p7
sS'edges'
p8
(lp9
(iSumoPathFinding.sumoPathFinding.cityMap
Edge
p10
(dp11
S'maximum_cost'
p12
F23.0
sg6
S'-25'
p13
sS'vertex1'
p14
g4
sS'vertex2'
p15
(iSumoPathFinding.sumoPathFinding.cityMap
Vertex
p16
(dp17
g6
S'8'
p18
sg8
(lp19
(iSumoPathFinding.sumoPathFinding.cityMap
Edge
p20
(dp21
g12
F84.0
sg6
S'-9'
p22
sg14
g16
sg15
(iSumoPathFinding.sumoPathFinding.cityMap
Vertex
p23
(dp24
g6
S'1'
p25
sg8
(lp26
(iSumoPathFinding.sumoPathFinding.cityMap
Edge
p27
(dp28
g12
F16.0
sg6
S'11'
p29
sg14
g23
sg15
(iSumoPathFinding.sumoPathFinding.cityMap
Vertex
p30
(dp31
g6
S'10'
p32
sg8
(lp33
(iSumoPathFinding.sumoPathFinding.cityMap
Edge
p34
(dp35
g12
F77.0
sg6
S'-11'
p36
sg14
g30
sg15
g23
sS'medium_cost'
p37
F42.8235294117647
sS'cost_samples'
p38
(lp39
F17.0
aF33.0
aF34.0
aF38.0
aF77.0
aF77.0
aF70.0
aF70.0
aF62.0
aF61.0
aF62.0
aF60.0
aF18.0
aF12.0
aF13.0
aF12.0
aF12.0
asS'minimum_cost'
p40
F12.0
sbasbsg37
F13.076923076923077
sg38
(lp41
F15.0
aF16.0
aF15.0
aF13.0
aF12.0
aF12.0
aF13.0
aF12.0
aF12.0
aF13.0
aF12.0
aF12.0
aF13.0
asg40
F12.0
sba(iSumoPathFinding.sumoPathFinding.cityMap
Edge
p42
(dp43
g12
F156.0
sg6
S'3'
p44
sg14
g23
sg15
(iSumoPathFinding.sumoPathFinding.cityMap
Vertex
p45
(dp46
g6
S'2'
p47
sg8
(lp48
(iSumoPathFinding.sumoPathFinding.cityMap
Edge
p49
(dp50
g12
F22.0
sg6
S'-3'
p51
sg14
g45
sg15
g23
sg37
F19.296296296296298
sg38
(lp52
F20.0
aF20.0
aF20.0
aF20.0
aF20.0
aF18.0
aF22.0
aF21.0
aF17.0
aF20.0
aF21.0
aF21.0
aF22.0
aF21.0
aF21.0
aF17.0
aF17.0
aF17.0
aF19.0
aF20.0
aF19.0
aF19.0
aF19.0
aF19.0
aF16.0
aF18.0
aF17.0
asg40
F16.0
sba(iSumoPathFinding.sumoPathFinding.cityMap
Edge
p53
(dp54
g12
F114.0
sg6
S'13'
p55
sg14
g45
sg15
(iSumoPathFinding.sumoPathFinding.cityMap
Vertex
p56
(dp57
g6
S'12'
p58
sg8
(lp59
(iSumoPathFinding.sumoPathFinding.cityMap
Edge
p60
(dp61
g12
F31.0
sg6
S'-13'
p62
sg14
g56
sg15
g45
sg37
F17.516129032258064
sg38
(lp63
F21.0
aF24.0
aF24.0
aF16.0
aF13.0
aF22.0
aF31.0
aF29.0
aF29.0
aF27.0
aF22.0
aF22.0
aF23.0
aF15.0
aF13.0
aF12.0
aF13.0
aF14.0
aF11.0
aF14.0
aF11.0
aF11.0
aF10.0
aF11.0
aF22.0
aF20.0
aF21.0
aF10.0
aF10.0
aF11.0
aF11.0
asg40
F10.0
sba(iSumoPathFinding.sumoPathFinding.cityMap
Edge
p64
(dp65
g12
F50.0
sg6
S'-17'
p66
sg14
g56
sg15
g16
sg37
F31.023255813953487
sg38
(lp67
F19.0
aF19.0
aF19.0
aF19.0
aF17.0
aF17.0
aF18.0
aF22.0
aF27.0
aF24.0
aF23.0
aF36.0
aF35.0
aF35.0
aF49.0
aF46.0
aF47.0
aF48.0
aF48.0
aF47.0
aF50.0
aF44.0
aF45.0
aF41.0
aF41.0
aF40.0
aF40.0
aF40.0
aF39.0
aF39.0
aF39.0
aF39.0
aF31.0
aF29.0
aF28.0
aF16.0
aF17.0
aF16.0
aF18.0
aF16.0
aF17.0
aF17.0
aF17.0
asg40
F16.0
sba(iSumoPathFinding.sumoPathFinding.cityMap
Edge
p68
(dp69
g12
F16.0
sg6
S'116'
p70
sg14
g56
sg15
(iSumoPathFinding.sumoPathFinding.cityMap
Vertex
p71
(dp72
g6
S'115'
p73
sg8
(lp74
(iSumoPathFinding.sumoPathFinding.cityMap
Edge
p75
(dp76
g12
F86.0
sg6
S'-116'
p77
sg14
g71
sg15
g56
sg37
F38.785714285714285
sg38
(lp78
F16.0
aF17.0
aF40.0
aF45.0
aF43.0
aF70.0
aF55.0
aF57.0
aF86.0
aF44.0
aF33.0
aF13.0
aF12.0
aF12.0
asg40
F12.0
sba(iSumoPathFinding.sumoPathFinding.cityMap
Edge
p79
(dp80
g12
F53.0
sg6
S'-313'
p81
sg14
g71
sg15
(iSumoPathFinding.sumoPathFinding.cityMap
Vertex
p82
(dp83
g6
S'37'
p84
sg8
(lp85
(iSumoPathFinding.sumoPathFinding.cityMap
Edge
p86
(dp87
g12
F14.0
sg6
S'-117'
p88
sg14
g82
sg15
(iSumoPathFinding.sumoPathFinding.cityMap
Vertex
p89
(dp90
g6
S'14'
p91
sg8
(lp92
(iSumoPathFinding.sumoPathFinding.cityMap
Edge
p93
(dp94
g12
F87.0
sg6
S'-15'
p95
sg14
g89
sg15
g45
sg37
F29.12
sg38
(lp96
F15.0
aF11.0
aF11.0
aF11.0
aF12.0
aF11.0
aF12.0
aF11.0
aF15.0
aF14.0
aF11.0
aF13.0
aF12.0
aF13.0
aF11.0
aF31.0
aF50.0
aF57.0
aF62.0
aF65.0
aF81.0
aF87.0
aF75.0
aF26.0
aF11.0
asg40
F11.0
sba(iSumoPathFinding.sumoPathFinding.cityMap
Edge
p97
(dp98
g12
F71.0
sg6
S'117'
p99
sg14
g89
sg15
g82
sg37
F31.857142857142858
sg38
(lp100
F71.0
aF55.0
aF54.0
aF48.0
aF50.0
aF44.0
aF45.0
aF17.0
aF10.0
aF10.0
aF10.0
aF11.0
aF11.0
aF10.0
asg40
F10.0
sba(iSumoPathFinding.sumoPathFinding.cityMap
Edge
p101
(dp102
g12
F12.0
sg6
S'119'
p103
sg14
g89
sg15
(iSumoPathFinding.sumoPathFinding.cityMap
Vertex
p104
(dp105
g6
S'118'
p106
sg8
(lp107
(iSumoPathFinding.sumoPathFinding.cityMap
Edge
p108
(dp109
g12
F18.0
sg6
S'-119'
p110
sg14
g104
sg15
g89
sg37
F12.714285714285714
sg38
(lp111
F14.0
aF12.0
aF14.0
aF14.0
aF14.0
aF13.0
aF14.0
aF18.0
aF15.0
aF15.0
aF9.0
aF9.0
aF9.0
aF8.0
asg40
F8.0
sbasbsg37
F10.454545454545455
sg38
(lp112
F12.0
aF12.0
aF12.0
aF12.0
aF10.0
aF9.0
aF10.0
aF9.0
aF10.0
aF10.0
aF9.0
asg40
F9.0
sbasbsg37
F9.882352941176471
sg38
(lp113
F14.0
aF11.0
aF9.0
aF8.0
aF12.0
aF12.0
aF11.0
aF9.0
aF11.0
aF9.0
aF9.0
aF9.0
aF9.0
aF9.0
aF9.0
aF8.0
aF9.0
asg40
F8.0
sba(iSumoPathFinding.sumoPathFinding.cityMap
Edge
p114
(dp115
g12
F29.0
sg6
S'-38'
p116
sg14
g82
sg15
g56
sg37
F18.151515151515152
sg38
(lp117
F16.0
aF18.0
aF13.0
aF16.0
aF15.0
aF18.0
aF15.0
aF14.0
aF14.0
aF14.0
aF13.0
aF18.0
aF16.0
aF18.0
aF16.0
aF16.0
aF16.0
aF16.0
aF27.0
aF29.0
aF27.0
aF27.0
aF25.0
aF24.0
aF24.0
aF23.0
aF23.0
aF21.0
aF13.0
aF13.0
aF14.0
aF14.0
aF13.0
asg40
F13.0
sba(iSumoPathFinding.sumoPathFinding.cityMap
Edge
p118
(dp119
g12
F16.0
sg6
S'313'
p120
sg14
g82
sg15
g71
sg37
F13.0
sg38
(lp121
F15.0
aF16.0
aF16.0
aF14.0
aF12.0
aF12.0
aF12.0
aF12.0
aF12.0
aF12.0
aF12.0
aF12.0
aF12.0
asg40
F12.0
sba(iSumoPathFinding.sumoPathFinding.cityMap
Edge
p122
(dp123
g12
F21.0
sg6
S'319'
p124
sg14
g82
sg15
(iSumoPathFinding.sumoPathFinding.cityMap
Vertex
p125
(dp126
g6
S'318'
p127
sg8
(lp128
(iSumoPathFinding.sumoPathFinding.cityMap
Edge
p129
(dp130
g12
F22.0
sg6
S'-319'
p131
sg14
g125
sg15
g82
sg37
F17.96
sg38
(lp132
F19.0
aF22.0
aF22.0
aF20.0
aF18.0
aF16.0
aF20.0
aF20.0
aF19.0
aF20.0
aF18.0
aF19.0
aF18.0
aF18.0
aF17.0
aF17.0
aF16.0
aF16.0
aF17.0
aF16.0
aF16.0
aF17.0
aF15.0
aF17.0
aF16.0
asg40
F15.0
sbasbsg37
F17.869565217391305
sg38
(lp133
F20.0
aF19.0
aF19.0
aF20.0
aF21.0
aF19.0
aF19.0
aF19.0
aF20.0
aF19.0
aF17.0
aF17.0
aF17.0
aF17.0
aF17.0
aF16.0
aF16.0
aF16.0
aF16.0
aF16.0
aF17.0
aF17.0
aF17.0
asg40
F16.0
sba(iSumoPathFinding.sumoPathFinding.cityMap
Edge
p134
(dp135
g12
F15.0
sg6
S'325'
p136
sg14
g82
sg15
(iSumoPathFinding.sumoPathFinding.cityMap
Vertex
p137
(dp138
g6
S'324'
p139
sg8
(lp140
(iSumoPathFinding.sumoPathFinding.cityMap
Edge
p141
(dp142
g12
F65.0
sg6
S'-325'
p143
sg14
g137
sg15
g82
sg37
F41.38461538461539
sg38
(lp144
F18.0
aF27.0
aF50.0
aF60.0
aF63.0
aF60.0
aF65.0
aF55.0
aF55.0
aF48.0
aF14.0
aF12.0
aF11.0
asg40
F11.0
sbasbsg37
F12.642857142857142
sg38
(lp145
F14.0
aF14.0
aF15.0
aF11.0
aF14.0
aF14.0
aF14.0
aF11.0
aF11.0
aF12.0
aF11.0
aF12.0
aF12.0
aF12.0
asg40
F11.0
sbasbsg37
F31.0
sg38
(lp146
F18.0
aF18.0
aF13.0
aF51.0
aF53.0
aF52.0
aF12.0
asg40
F12.0
sbasbsg37
F12.923076923076923
sg38
(lp147
F15.0
aF16.0
aF12.0
aF11.0
aF14.0
aF12.0
aF14.0
aF12.0
aF12.0
aF13.0
aF12.0
aF13.0
aF12.0
asg40
F11.0
sba(iSumoPathFinding.sumoPathFinding.cityMap
Edge
p148
(dp149
g12
F18.0
sg6
S'38'
p150
sg14
g56
sg15
g82
sg37
F14.576923076923077
sg38
(lp151
F18.0
aF16.0
aF14.0
aF16.0
aF16.0
aF15.0
aF16.0
aF15.0
aF15.0
aF13.0
aF13.0
aF15.0
aF14.0
aF14.0
aF13.0
aF15.0
aF13.0
aF14.0
aF14.0
aF16.0
aF14.0
aF13.0
aF15.0
aF12.0
aF15.0
aF15.0
asg40
F12.0
sba(iSumoPathFinding.sumoPathFinding.cityMap
Edge
p152
(dp153
g12
F16.0
sg6
S'64'
p154
sg14
g56
sg15
(iSumoPathFinding.sumoPathFinding.cityMap
Vertex
p155
(dp156
g6
S'63'
p157
sg8
(lp158
(iSumoPathFinding.sumoPathFinding.cityMap
Edge
p159
(dp160
g12
F60.0
sg6
S'-121'
p161
sg14
g155
sg15
(iSumoPathFinding.sumoPathFinding.cityMap
Vertex
p162
(dp163
g6
S'18'
p164
sg8
(lp165
(iSumoPathFinding.sumoPathFinding.cityMap
Edge
p166
(dp167
g12
F136.0
sg6
S'-19'
p168
sg14
g162
sg15
g16
sg37
F104.30434782608695
sg38
(lp169
F19.0
aF17.0
aF36.0
aF32.0
aF48.0
aF109.0
aF126.0
aF126.0
aF131.0
aF132.0
aF131.0
aF130.0
aF131.0
aF131.0
aF131.0
aF136.0
aF136.0
aF136.0
aF136.0
aF122.0
aF121.0
aF103.0
aF79.0
asg40
F17.0
sba(iSumoPathFinding.sumoPathFinding.cityMap
Edge
p170
(dp171
g12
F55.0
sg6
S'121'
p172
sg14
g162
sg15
g155
sg37
F24.34375
sg38
(lp173
F21.0
aF22.0
aF21.0
aF20.0
aF19.0
aF16.0
aF18.0
aF15.0
aF19.0
aF16.0
aF18.0
aF16.0
aF16.0
aF16.0
aF15.0
aF15.0
aF16.0
aF16.0
aF23.0
aF24.0
aF50.0
aF51.0
aF49.0
aF52.0
aF55.0
aF34.0
aF28.0
aF24.0
aF22.0
aF21.0
aF15.0
aF16.0
asg40
F15.0
sba(iSumoPathFinding.sumoPathFinding.cityMap
Edge
p174
(dp175
g12
F15.0
sg6
S'123'
p176
sg14
g162
sg15
(iSumoPathFinding.sumoPathFinding.cityMap
Vertex
p177
(dp178
g6
S'122'
p179
sg8
(lp180
(iSumoPathFinding.sumoPathFinding.cityMap
Edge
p181
(dp182
g12
F44.0
sg6
S'-123'
p183
sg14
g177
sg15
g162
sg37
F22.8
sg38
(lp184
F16.0
aF16.0
aF19.0
aF28.0
aF38.0
aF44.0
aF33.0
aF12.0
aF11.0
aF11.0
asg40
F11.0
sbasbsg37
F12.0
sg38
(lp185
F14.0
aF15.0
aF11.0
aF12.0
aF12.0
aF12.0
aF12.0
aF11.0
aF11.0
aF11.0
aF12.0
aF11.0
asg40
F11.0
sba(iSumoPathFinding.sumoPathFinding.cityMap
Edge
p186
(dp187
g12
F20.0
sg6
S'125'
p188
sg14
g162
sg15
(iSumoPathFinding.sumoPathFinding.cityMap
Vertex
p189
(dp190
g6
S'124'
p191
sg8
(lp192
(iSumoPathFinding.sumoPathFinding.cityMap
Edge
p193
(dp194
g12
F17.0
sg6
S'-125'
p195
sg14
g189
sg15
g162
sg37
F14.4375
sg38
(lp196
F14.0
aF13.0
aF14.0
aF15.0
aF17.0
aF16.0
aF16.0
aF14.0
aF14.0
aF14.0
aF15.0
aF14.0
aF14.0
aF13.0
aF14.0
aF14.0
asg40
F13.0
sba(iSumoPathFinding.sumoPathFinding.cityMap
Edge
p197
(dp198
g12
F32.0
sg6
S'-126'
p199
sg14
g189
sg15
g4
sg37
F20.4
sg38
(lp200
F20.0
aF21.0
aF18.0
aF29.0
aF32.0
aF16.0
aF17.0
aF17.0
aF18.0
aF16.0
asg40
F16.0
sbasbsg37
F14.941176470588236
sg38
(lp201
F20.0
aF19.0
aF19.0
aF16.0
aF13.0
aF14.0
aF15.0
aF15.0
aF13.0
aF14.0
aF15.0
aF14.0
aF14.0
aF13.0
aF13.0
aF13.0
aF14.0
asg40
F13.0
sbasbsg37
F32.71875
sg38
(lp202
F15.0
aF17.0
aF21.0
aF21.0
aF60.0
aF60.0
aF58.0
aF58.0
aF60.0
aF50.0
aF48.0
aF46.0
aF47.0
aF47.0
aF44.0
aF45.0
aF43.0
aF43.0
aF39.0
aF27.0
aF23.0
aF20.0
aF16.0
aF16.0
aF15.0
aF15.0
aF15.0
aF15.0
aF15.0
aF15.0
aF17.0
aF16.0
asg40
F15.0
sba(iSumoPathFinding.sumoPathFinding.cityMap
Edge
p203
(dp204
g12
F118.0
sg6
S'-64'
p205
sg14
g155
sg15
g56
sg37
F85.75757575757575
sg38
(lp206
F16.0
aF40.0
aF41.0
aF59.0
aF60.0
aF87.0
aF90.0
aF91.0
aF93.0
aF91.0
aF102.0
aF96.0
aF92.0
aF89.0
aF91.0
aF110.0
aF110.0
aF116.0
aF116.0
aF118.0
aF116.0
aF105.0
aF104.0
aF89.0
aF95.0
aF92.0
aF89.0
aF89.0
aF84.0
aF82.0
aF78.0
aF66.0
aF33.0
asg40
F16.0
sbasbsg37
F11.972222222222221
sg38
(lp207
F16.0
aF16.0
aF16.0
aF14.0
aF14.0
aF11.0
aF13.0
aF14.0
aF13.0
aF11.0
aF12.0
aF11.0
aF11.0
aF11.0
aF12.0
aF11.0
aF11.0
aF11.0
aF12.0
aF11.0
aF11.0
aF11.0
aF11.0
aF10.0
aF11.0
aF11.0
aF11.0
aF11.0
aF13.0
aF11.0
aF13.0
aF11.0
aF11.0
aF11.0
aF12.0
aF11.0
asg40
F10.0
sbasbsg37
F72.87096774193549
sg38
(lp208
F59.0
aF65.0
aF67.0
aF73.0
aF77.0
aF95.0
aF95.0
aF96.0
aF114.0
aF113.0
aF114.0
aF112.0
aF111.0
aF111.0
aF111.0
aF110.0
aF90.0
aF80.0
aF78.0
aF74.0
aF66.0
aF60.0
aF50.0
aF46.0
aF41.0
aF32.0
aF30.0
aF32.0
aF17.0
aF21.0
aF19.0
asg40
F17.0
sba(iSumoPathFinding.sumoPathFinding.cityMap
Edge
p209
(dp210
g12
F39.0
sg6
S'15'
p211
sg14
g45
sg15
g89
sg37
F16.6
sg38
(lp212
F25.0
aF39.0
aF28.0
aF15.0
aF14.0
aF19.0
aF18.0
aF18.0
aF13.0
aF13.0
aF13.0
aF13.0
aF14.0
aF14.0
aF14.0
aF12.0
aF13.0
aF13.0
aF13.0
aF11.0
asg40
F11.0
sbasbsg37
F101.8076923076923
sg38
(lp213
F21.0
aF23.0
aF21.0
aF39.0
aF78.0
aF107.0
aF139.0
aF156.0
aF148.0
aF143.0
aF144.0
aF143.0
aF135.0
aF127.0
aF122.0
aF122.0
aF116.0
aF116.0
aF115.0
aF113.0
aF113.0
aF107.0
aF102.0
aF86.0
aF82.0
aF29.0
asg40
F21.0
sba(iSumoPathFinding.sumoPathFinding.cityMap
Edge
p214
(dp215
g12
F19.0
sg6
S'7'
p216
sg14
g23
sg15
(iSumoPathFinding.sumoPathFinding.cityMap
Vertex
p217
(dp218
g6
S'6'
p219
sg8
(lp220
(iSumoPathFinding.sumoPathFinding.cityMap
Edge
p221
(dp222
g12
F22.0
sg6
S'-7'
p223
sg14
g217
sg15
g23
sg37
F18.583333333333332
sg38
(lp224
F20.0
aF21.0
aF20.0
aF19.0
aF18.0
aF18.0
aF20.0
aF22.0
aF18.0
aF17.0
aF15.0
aF15.0
asg40
F15.0
sbasbsg37
F16.923076923076923
sg38
(lp225
F16.0
aF19.0
aF19.0
aF18.0
aF18.0
aF16.0
aF19.0
aF15.0
aF15.0
aF17.0
aF16.0
aF16.0
aF16.0
asg40
F15.0
sba(iSumoPathFinding.sumoPathFinding.cityMap
Edge
p226
(dp227
g12
F162.0
sg6
S'9'
p228
sg14
g23
sg15
g16
sg37
F116.16666666666667
sg38
(lp229
F20.0
aF18.0
aF33.0
aF43.0
aF41.0
aF55.0
aF62.0
aF134.0
aF132.0
aF134.0
aF134.0
aF133.0
aF129.0
aF136.0
aF136.0
aF143.0
aF144.0
aF162.0
aF160.0
aF157.0
aF158.0
aF155.0
aF155.0
aF141.0
aF142.0
aF136.0
aF129.0
aF125.0
aF121.0
aF117.0
asg40
F18.0
sbasbsg37
F44.193548387096776
sg38
(lp230
F19.0
aF19.0
aF30.0
aF84.0
aF83.0
aF82.0
aF82.0
aF67.0
aF68.0
aF63.0
aF62.0
aF61.0
aF59.0
aF60.0
aF51.0
aF50.0
aF42.0
aF44.0
aF44.0
aF39.0
aF37.0
aF43.0
aF44.0
aF19.0
aF19.0
aF17.0
aF17.0
aF17.0
aF15.0
aF17.0
aF16.0
asg40
F15.0
sba(iSumoPathFinding.sumoPathFinding.cityMap
Edge
p231
(dp232
g12
F34.0
sg6
S'17'
p233
sg14
g16
sg15
g56
sg37
F20.615384615384617
sg38
(lp234
F21.0
aF17.0
aF20.0
aF20.0
aF20.0
aF19.0
aF16.0
aF17.0
aF22.0
aF25.0
aF24.0
aF26.0
aF34.0
aF32.0
aF30.0
aF29.0
aF29.0
aF29.0
aF28.0
aF18.0
aF16.0
aF16.0
aF17.0
aF16.0
aF16.0
aF18.0
aF17.0
aF18.0
aF19.0
aF19.0
aF20.0
aF19.0
aF18.0
aF17.0
aF18.0
aF16.0
aF16.0
aF16.0
aF16.0
asg40
F16.0
sba(iSumoPathFinding.sumoPathFinding.cityMap
Edge
p235
(dp236
g12
F31.0
sg6
S'19'
p237
sg14
g16
sg15
g162
sg37
F18.076923076923077
sg38
(lp238
F15.0
aF18.0
aF22.0
aF24.0
aF29.0
aF31.0
aF24.0
aF23.0
aF18.0
aF14.0
aF15.0
aF20.0
aF16.0
aF17.0
aF15.0
aF14.0
aF14.0
aF16.0
aF15.0
aF15.0
aF17.0
aF16.0
aF14.0
aF16.0
aF16.0
aF16.0
asg40
F14.0
sba(iSumoPathFinding.sumoPathFinding.cityMap
Edge
p239
(dp240
g12
F58.0
sg6
S'25'
p241
sg14
g16
sg15
g4
sg37
F27.142857142857142
sg38
(lp242
F17.0
aF18.0
aF46.0
aF47.0
aF57.0
aF49.0
aF58.0
aF53.0
aF56.0
aF54.0
aF50.0
aF40.0
aF40.0
aF42.0
aF24.0
aF24.0
aF25.0
aF24.0
aF17.0
aF17.0
aF18.0
aF17.0
aF18.0
aF19.0
aF17.0
aF17.0
aF17.0
aF18.0
aF16.0
aF17.0
aF17.0
aF19.0
aF16.0
aF19.0
aF17.0
aF16.0
aF17.0
aF18.0
aF18.0
aF17.0
aF17.0
aF17.0
asg40
F16.0
sbasbsg37
F17.869565217391305
sg38
(lp243
F18.0
aF18.0
aF16.0
aF18.0
aF21.0
aF19.0
aF19.0
aF17.0
aF17.0
aF16.0
aF16.0
aF16.0
aF16.0
aF18.0
aF16.0
aF17.0
aF18.0
aF18.0
aF16.0
aF15.0
aF17.0
aF16.0
aF18.0
aF17.0
aF22.0
aF23.0
aF23.0
aF21.0
aF21.0
aF20.0
aF20.0
aF20.0
aF17.0
aF16.0
aF15.0
aF18.0
aF20.0
aF19.0
aF18.0
aF19.0
aF17.0
aF16.0
aF16.0
aF16.0
aF16.0
aF16.0
asg40
F15.0
sba(iSumoPathFinding.sumoPathFinding.cityMap
Edge
p244
(dp245
g12
F20.0
sg6
S'126'
p246
sg14
g4
sg15
g189
sg37
F18.11111111111111
sg38
(lp247
F20.0
aF20.0
aF19.0
aF20.0
aF20.0
aF19.0
aF19.0
aF17.0
aF17.0
aF20.0
aF17.0
aF16.0
aF17.0
aF17.0
aF17.0
aF17.0
aF17.0
aF17.0
asg40
F16.0
sba(iSumoPathFinding.sumoPathFinding.cityMap
Edge
p248
(dp249
g12
F11.0
sg6
S'128'
p250
sg14
g4
sg15
(iSumoPathFinding.sumoPathFinding.cityMap
Vertex
p251
(dp252
g6
S'127'
p253
sg8
(lp254
(iSumoPathFinding.sumoPathFinding.cityMap
Edge
p255
(dp256
g12
F78.0
sg6
S'-128'
p257
sg14
g251
sg15
g4
sg37
F58.15384615384615
sg38
(lp258
F60.0
aF77.0
aF76.0
aF76.0
aF78.0
aF74.0
aF74.0
aF71.0
aF69.0
aF38.0
aF33.0
aF22.0
aF8.0
asg40
F8.0
sbasbsg37
F9.3
sg38
(lp259
F11.0
aF11.0
aF11.0
aF11.0
aF8.0
aF9.0
aF8.0
aF8.0
aF8.0
aF8.0
asg40
F8.0
sba(iSumoPathFinding.sumoPathFinding.cityMap
Edge
p260
(dp261
g12
F19.0
sg6
S'138'
p262
sg14
g4
sg15
(iSumoPathFinding.sumoPathFinding.cityMap
Vertex
p263
(dp264
g6
S'137'
p265
sg8
(lp266
(iSumoPathFinding.sumoPathFinding.cityMap
Edge
p267
(dp268
g12
F20.0
sg6
S'-138'
p269
sg14
g263
sg15
g4
sg37
F17.5
sg38
(lp270
F19.0
aF19.0
aF19.0
aF19.0
aF19.0
aF19.0
aF19.0
aF16.0
aF19.0
aF16.0
aF16.0
aF17.0
aF20.0
aF19.0
aF16.0
aF16.0
aF17.0
aF16.0
aF18.0
aF16.0
aF17.0
aF16.0
aF17.0
aF15.0
asg40
F15.0
sbasbsg37
F17.68421052631579
sg38
(lp271
F19.0
aF16.0
aF19.0
aF19.0
aF19.0
aF19.0
aF17.0
aF19.0
aF19.0
aF19.0
aF19.0
aF19.0
aF17.0
aF16.0
aF16.0
aF16.0
aF16.0
aF16.0
aF16.0
asg40
F16.0
sba(iSumoPathFinding.sumoPathFinding.cityMap
Edge
p272
(dp273
g12
F14.0
sg6
S'210'
p274
sg14
g4
sg15
(iSumoPathFinding.sumoPathFinding.cityMap
Vertex
p275
(dp276
g6
S'209'
p277
sg8
(lp278
(iSumoPathFinding.sumoPathFinding.cityMap
Edge
p279
(dp280
g12
F77.0
sg6
S'-210'
p281
sg14
g275
sg15
g4
sg37
F29.833333333333332
sg38
(lp282
F15.0
aF15.0
aF67.0
aF50.0
aF50.0
aF77.0
aF32.0
aF11.0
aF10.0
aF11.0
aF10.0
aF10.0
asg40
F10.0
sbasbsg37
F11.23076923076923
sg38
(lp283
F13.0
aF13.0
aF14.0
aF11.0
aF11.0
aF11.0
aF10.0
aF11.0
aF10.0
aF10.0
aF10.0
aF11.0
aF11.0
asg40
F10.0
sbasbag30
ag56
ag125
ag89
ag275
ag162
ag217
ag82
ag23
ag177
ag45
ag189
ag16
ag137
ag251
ag263
ag71
ag104
ag155
asb.