(iSumoPathFinding.sumoPathFinding.cityMap
CityMap
p0
(dp1
S'vertexes'
p2
(lp3
(iSumoPathFinding.sumoPathFinding.cityMap
Vertex
p4
(dp5
S'sumo_id'
p6
S'24'
p7
sS'edges'
p8
(lp9
(iSumoPathFinding.sumoPathFinding.cityMap
Edge
p10
(dp11
S'maximum_cost'
p12
F23.0
sg6
S'-25'
p13
sS'vertex1'
p14
g4
sS'vertex2'
p15
(iSumoPathFinding.sumoPathFinding.cityMap
Vertex
p16
(dp17
g6
S'8'
p18
sg8
(lp19
(iSumoPathFinding.sumoPathFinding.cityMap
Edge
p20
(dp21
g12
F84.0
sg6
S'-9'
p22
sg14
g16
sg15
(iSumoPathFinding.sumoPathFinding.cityMap
Vertex
p23
(dp24
g6
S'1'
p25
sg8
(lp26
(iSumoPathFinding.sumoPathFinding.cityMap
Edge
p27
(dp28
g12
F16.0
sg6
S'11'
p29
sg14
g23
sg15
(iSumoPathFinding.sumoPathFinding.cityMap
Vertex
p30
(dp31
g6
S'10'
p32
sg8
(lp33
(iSumoPathFinding.sumoPathFinding.cityMap
Edge
p34
(dp35
g12
F77.0
sg6
S'-11'
p36
sg14
g30
sg15
g23
sS'medium_cost'
p37
F42.8235294117647
sS'guessed_cost'
p38
NsS'cost_samples'
p39
(lp40
F17.0
aF33.0
aF34.0
aF38.0
aF77.0
aF77.0
aF70.0
aF70.0
aF62.0
aF61.0
aF62.0
aF60.0
aF18.0
aF12.0
aF13.0
aF12.0
aF12.0
asS'minimum_cost'
p41
F12.0
sbasbsg37
F13.076923076923077
sg38
Nsg39
(lp42
F15.0
aF16.0
aF15.0
aF13.0
aF12.0
aF12.0
aF13.0
aF12.0
aF12.0
aF13.0
aF12.0
aF12.0
aF13.0
asg41
F12.0
sba(iSumoPathFinding.sumoPathFinding.cityMap
Edge
p43
(dp44
g12
F156.0
sg6
S'3'
p45
sg14
g23
sg15
(iSumoPathFinding.sumoPathFinding.cityMap
Vertex
p46
(dp47
g6
S'2'
p48
sg8
(lp49
(iSumoPathFinding.sumoPathFinding.cityMap
Edge
p50
(dp51
g12
F22.0
sg6
S'-3'
p52
sg14
g46
sg15
g23
sg37
F19.296296296296298
sg38
Nsg39
(lp53
F20.0
aF20.0
aF20.0
aF20.0
aF20.0
aF18.0
aF22.0
aF21.0
aF17.0
aF20.0
aF21.0
aF21.0
aF22.0
aF21.0
aF21.0
aF17.0
aF17.0
aF17.0
aF19.0
aF20.0
aF19.0
aF19.0
aF19.0
aF19.0
aF16.0
aF18.0
aF17.0
asg41
F16.0
sba(iSumoPathFinding.sumoPathFinding.cityMap
Edge
p54
(dp55
g12
F114.0
sg6
S'13'
p56
sg14
g46
sg15
(iSumoPathFinding.sumoPathFinding.cityMap
Vertex
p57
(dp58
g6
S'12'
p59
sg8
(lp60
(iSumoPathFinding.sumoPathFinding.cityMap
Edge
p61
(dp62
g12
F31.0
sg6
S'-13'
p63
sg14
g57
sg15
g46
sg37
F17.516129032258064
sg38
Nsg39
(lp64
F21.0
aF24.0
aF24.0
aF16.0
aF13.0
aF22.0
aF31.0
aF29.0
aF29.0
aF27.0
aF22.0
aF22.0
aF23.0
aF15.0
aF13.0
aF12.0
aF13.0
aF14.0
aF11.0
aF14.0
aF11.0
aF11.0
aF10.0
aF11.0
aF22.0
aF20.0
aF21.0
aF10.0
aF10.0
aF11.0
aF11.0
asg41
F10.0
sba(iSumoPathFinding.sumoPathFinding.cityMap
Edge
p65
(dp66
g12
F50.0
sg6
S'-17'
p67
sg14
g57
sg15
g16
sg37
F31.023255813953487
sg38
Nsg39
(lp68
F19.0
aF19.0
aF19.0
aF19.0
aF17.0
aF17.0
aF18.0
aF22.0
aF27.0
aF24.0
aF23.0
aF36.0
aF35.0
aF35.0
aF49.0
aF46.0
aF47.0
aF48.0
aF48.0
aF47.0
aF50.0
aF44.0
aF45.0
aF41.0
aF41.0
aF40.0
aF40.0
aF40.0
aF39.0
aF39.0
aF39.0
aF39.0
aF31.0
aF29.0
aF28.0
aF16.0
aF17.0
aF16.0
aF18.0
aF16.0
aF17.0
aF17.0
aF17.0
asg41
F16.0
sba(iSumoPathFinding.sumoPathFinding.cityMap
Edge
p69
(dp70
g12
F16.0
sg6
S'116'
p71
sg14
g57
sg15
(iSumoPathFinding.sumoPathFinding.cityMap
Vertex
p72
(dp73
g6
S'115'
p74
sg8
(lp75
(iSumoPathFinding.sumoPathFinding.cityMap
Edge
p76
(dp77
g12
F86.0
sg6
S'-116'
p78
sg14
g72
sg15
g57
sg37
F38.785714285714285
sg38
Nsg39
(lp79
F16.0
aF17.0
aF40.0
aF45.0
aF43.0
aF70.0
aF55.0
aF57.0
aF86.0
aF44.0
aF33.0
aF13.0
aF12.0
aF12.0
asg41
F12.0
sba(iSumoPathFinding.sumoPathFinding.cityMap
Edge
p80
(dp81
g12
F53.0
sg6
S'-313'
p82
sg14
g72
sg15
(iSumoPathFinding.sumoPathFinding.cityMap
Vertex
p83
(dp84
g6
S'37'
p85
sg8
(lp86
(iSumoPathFinding.sumoPathFinding.cityMap
Edge
p87
(dp88
g12
F14.0
sg6
S'-117'
p89
sg14
g83
sg15
(iSumoPathFinding.sumoPathFinding.cityMap
Vertex
p90
(dp91
g6
S'14'
p92
sg8
(lp93
(iSumoPathFinding.sumoPathFinding.cityMap
Edge
p94
(dp95
g12
F87.0
sg6
S'-15'
p96
sg14
g90
sg15
g46
sg37
F29.12
sg38
Nsg39
(lp97
F15.0
aF11.0
aF11.0
aF11.0
aF12.0
aF11.0
aF12.0
aF11.0
aF15.0
aF14.0
aF11.0
aF13.0
aF12.0
aF13.0
aF11.0
aF31.0
aF50.0
aF57.0
aF62.0
aF65.0
aF81.0
aF87.0
aF75.0
aF26.0
aF11.0
asg41
F11.0
sba(iSumoPathFinding.sumoPathFinding.cityMap
Edge
p98
(dp99
g12
F71.0
sg6
S'117'
p100
sg14
g90
sg15
g83
sg37
F31.857142857142858
sg38
Nsg39
(lp101
F71.0
aF55.0
aF54.0
aF48.0
aF50.0
aF44.0
aF45.0
aF17.0
aF10.0
aF10.0
aF10.0
aF11.0
aF11.0
aF10.0
asg41
F10.0
sba(iSumoPathFinding.sumoPathFinding.cityMap
Edge
p102
(dp103
g12
F12.0
sg6
S'119'
p104
sg14
g90
sg15
(iSumoPathFinding.sumoPathFinding.cityMap
Vertex
p105
(dp106
g6
S'118'
p107
sg8
(lp108
(iSumoPathFinding.sumoPathFinding.cityMap
Edge
p109
(dp110
g12
F18.0
sg6
S'-119'
p111
sg14
g105
sg15
g90
sg37
F12.714285714285714
sg38
Nsg39
(lp112
F14.0
aF12.0
aF14.0
aF14.0
aF14.0
aF13.0
aF14.0
aF18.0
aF15.0
aF15.0
aF9.0
aF9.0
aF9.0
aF8.0
asg41
F8.0
sbasbsg37
F10.454545454545455
sg38
Nsg39
(lp113
F12.0
aF12.0
aF12.0
aF12.0
aF10.0
aF9.0
aF10.0
aF9.0
aF10.0
aF10.0
aF9.0
asg41
F9.0
sbasbsg37
F9.882352941176471
sg38
Nsg39
(lp114
F14.0
aF11.0
aF9.0
aF8.0
aF12.0
aF12.0
aF11.0
aF9.0
aF11.0
aF9.0
aF9.0
aF9.0
aF9.0
aF9.0
aF9.0
aF8.0
aF9.0
asg41
F8.0
sba(iSumoPathFinding.sumoPathFinding.cityMap
Edge
p115
(dp116
g12
F29.0
sg6
S'-38'
p117
sg14
g83
sg15
g57
sg37
F18.151515151515152
sg38
Nsg39
(lp118
F16.0
aF18.0
aF13.0
aF16.0
aF15.0
aF18.0
aF15.0
aF14.0
aF14.0
aF14.0
aF13.0
aF18.0
aF16.0
aF18.0
aF16.0
aF16.0
aF16.0
aF16.0
aF27.0
aF29.0
aF27.0
aF27.0
aF25.0
aF24.0
aF24.0
aF23.0
aF23.0
aF21.0
aF13.0
aF13.0
aF14.0
aF14.0
aF13.0
asg41
F13.0
sba(iSumoPathFinding.sumoPathFinding.cityMap
Edge
p119
(dp120
g12
F16.0
sg6
S'313'
p121
sg14
g83
sg15
g72
sg37
F13.0
sg38
Nsg39
(lp122
F15.0
aF16.0
aF16.0
aF14.0
aF12.0
aF12.0
aF12.0
aF12.0
aF12.0
aF12.0
aF12.0
aF12.0
aF12.0
asg41
F12.0
sba(iSumoPathFinding.sumoPathFinding.cityMap
Edge
p123
(dp124
g12
F21.0
sg6
S'319'
p125
sg14
g83
sg15
(iSumoPathFinding.sumoPathFinding.cityMap
Vertex
p126
(dp127
g6
S'318'
p128
sg8
(lp129
(iSumoPathFinding.sumoPathFinding.cityMap
Edge
p130
(dp131
g12
F22.0
sg6
S'-319'
p132
sg14
g126
sg15
g83
sg37
F17.96
sg38
Nsg39
(lp133
F19.0
aF22.0
aF22.0
aF20.0
aF18.0
aF16.0
aF20.0
aF20.0
aF19.0
aF20.0
aF18.0
aF19.0
aF18.0
aF18.0
aF17.0
aF17.0
aF16.0
aF16.0
aF17.0
aF16.0
aF16.0
aF17.0
aF15.0
aF17.0
aF16.0
asg41
F15.0
sbasbsg37
F17.869565217391305
sg38
Nsg39
(lp134
F20.0
aF19.0
aF19.0
aF20.0
aF21.0
aF19.0
aF19.0
aF19.0
aF20.0
aF19.0
aF17.0
aF17.0
aF17.0
aF17.0
aF17.0
aF16.0
aF16.0
aF16.0
aF16.0
aF16.0
aF17.0
aF17.0
aF17.0
asg41
F16.0
sba(iSumoPathFinding.sumoPathFinding.cityMap
Edge
p135
(dp136
g12
F15.0
sg6
S'325'
p137
sg14
g83
sg15
(iSumoPathFinding.sumoPathFinding.cityMap
Vertex
p138
(dp139
g6
S'324'
p140
sg8
(lp141
(iSumoPathFinding.sumoPathFinding.cityMap
Edge
p142
(dp143
g12
F65.0
sg6
S'-325'
p144
sg14
g138
sg15
g83
sg37
F41.38461538461539
sg38
Nsg39
(lp145
F18.0
aF27.0
aF50.0
aF60.0
aF63.0
aF60.0
aF65.0
aF55.0
aF55.0
aF48.0
aF14.0
aF12.0
aF11.0
asg41
F11.0
sbasbsg37
F12.642857142857142
sg38
Nsg39
(lp146
F14.0
aF14.0
aF15.0
aF11.0
aF14.0
aF14.0
aF14.0
aF11.0
aF11.0
aF12.0
aF11.0
aF12.0
aF12.0
aF12.0
asg41
F11.0
sbasbsg37
F31.0
sg38
Nsg39
(lp147
F18.0
aF18.0
aF13.0
aF51.0
aF53.0
aF52.0
aF12.0
asg41
F12.0
sbasbsg37
F12.923076923076923
sg38
Nsg39
(lp148
F15.0
aF16.0
aF12.0
aF11.0
aF14.0
aF12.0
aF14.0
aF12.0
aF12.0
aF13.0
aF12.0
aF13.0
aF12.0
asg41
F11.0
sba(iSumoPathFinding.sumoPathFinding.cityMap
Edge
p149
(dp150
g12
F18.0
sg6
S'38'
p151
sg14
g57
sg15
g83
sg37
F14.576923076923077
sg38
Nsg39
(lp152
F18.0
aF16.0
aF14.0
aF16.0
aF16.0
aF15.0
aF16.0
aF15.0
aF15.0
aF13.0
aF13.0
aF15.0
aF14.0
aF14.0
aF13.0
aF15.0
aF13.0
aF14.0
aF14.0
aF16.0
aF14.0
aF13.0
aF15.0
aF12.0
aF15.0
aF15.0
asg41
F12.0
sba(iSumoPathFinding.sumoPathFinding.cityMap
Edge
p153
(dp154
g12
F16.0
sg6
S'64'
p155
sg14
g57
sg15
(iSumoPathFinding.sumoPathFinding.cityMap
Vertex
p156
(dp157
g6
S'63'
p158
sg8
(lp159
(iSumoPathFinding.sumoPathFinding.cityMap
Edge
p160
(dp161
g12
F60.0
sg6
S'-121'
p162
sg14
g156
sg15
(iSumoPathFinding.sumoPathFinding.cityMap
Vertex
p163
(dp164
g6
S'18'
p165
sg8
(lp166
(iSumoPathFinding.sumoPathFinding.cityMap
Edge
p167
(dp168
g12
F136.0
sg6
S'-19'
p169
sg14
g163
sg15
g16
sg37
F104.30434782608695
sg38
Nsg39
(lp170
F19.0
aF17.0
aF36.0
aF32.0
aF48.0
aF109.0
aF126.0
aF126.0
aF131.0
aF132.0
aF131.0
aF130.0
aF131.0
aF131.0
aF131.0
aF136.0
aF136.0
aF136.0
aF136.0
aF122.0
aF121.0
aF103.0
aF79.0
asg41
F17.0
sba(iSumoPathFinding.sumoPathFinding.cityMap
Edge
p171
(dp172
g12
F55.0
sg6
S'121'
p173
sg14
g163
sg15
g156
sg37
F24.34375
sg38
Nsg39
(lp174
F21.0
aF22.0
aF21.0
aF20.0
aF19.0
aF16.0
aF18.0
aF15.0
aF19.0
aF16.0
aF18.0
aF16.0
aF16.0
aF16.0
aF15.0
aF15.0
aF16.0
aF16.0
aF23.0
aF24.0
aF50.0
aF51.0
aF49.0
aF52.0
aF55.0
aF34.0
aF28.0
aF24.0
aF22.0
aF21.0
aF15.0
aF16.0
asg41
F15.0
sba(iSumoPathFinding.sumoPathFinding.cityMap
Edge
p175
(dp176
g12
F15.0
sg6
S'123'
p177
sg14
g163
sg15
(iSumoPathFinding.sumoPathFinding.cityMap
Vertex
p178
(dp179
g6
S'122'
p180
sg8
(lp181
(iSumoPathFinding.sumoPathFinding.cityMap
Edge
p182
(dp183
g12
F44.0
sg6
S'-123'
p184
sg14
g178
sg15
g163
sg37
F22.8
sg38
Nsg39
(lp185
F16.0
aF16.0
aF19.0
aF28.0
aF38.0
aF44.0
aF33.0
aF12.0
aF11.0
aF11.0
asg41
F11.0
sbasbsg37
F12.0
sg38
Nsg39
(lp186
F14.0
aF15.0
aF11.0
aF12.0
aF12.0
aF12.0
aF12.0
aF11.0
aF11.0
aF11.0
aF12.0
aF11.0
asg41
F11.0
sba(iSumoPathFinding.sumoPathFinding.cityMap
Edge
p187
(dp188
g12
F20.0
sg6
S'125'
p189
sg14
g163
sg15
(iSumoPathFinding.sumoPathFinding.cityMap
Vertex
p190
(dp191
g6
S'124'
p192
sg8
(lp193
(iSumoPathFinding.sumoPathFinding.cityMap
Edge
p194
(dp195
g12
F17.0
sg6
S'-125'
p196
sg14
g190
sg15
g163
sg37
F14.4375
sg38
Nsg39
(lp197
F14.0
aF13.0
aF14.0
aF15.0
aF17.0
aF16.0
aF16.0
aF14.0
aF14.0
aF14.0
aF15.0
aF14.0
aF14.0
aF13.0
aF14.0
aF14.0
asg41
F13.0
sba(iSumoPathFinding.sumoPathFinding.cityMap
Edge
p198
(dp199
g12
F32.0
sg6
S'-126'
p200
sg14
g190
sg15
g4
sg37
F20.4
sg38
Nsg39
(lp201
F20.0
aF21.0
aF18.0
aF29.0
aF32.0
aF16.0
aF17.0
aF17.0
aF18.0
aF16.0
asg41
F16.0
sbasbsg37
F14.941176470588236
sg38
Nsg39
(lp202
F20.0
aF19.0
aF19.0
aF16.0
aF13.0
aF14.0
aF15.0
aF15.0
aF13.0
aF14.0
aF15.0
aF14.0
aF14.0
aF13.0
aF13.0
aF13.0
aF14.0
asg41
F13.0
sbasbsg37
F32.71875
sg38
Nsg39
(lp203
F15.0
aF17.0
aF21.0
aF21.0
aF60.0
aF60.0
aF58.0
aF58.0
aF60.0
aF50.0
aF48.0
aF46.0
aF47.0
aF47.0
aF44.0
aF45.0
aF43.0
aF43.0
aF39.0
aF27.0
aF23.0
aF20.0
aF16.0
aF16.0
aF15.0
aF15.0
aF15.0
aF15.0
aF15.0
aF15.0
aF17.0
aF16.0
asg41
F15.0
sba(iSumoPathFinding.sumoPathFinding.cityMap
Edge
p204
(dp205
g12
F118.0
sg6
S'-64'
p206
sg14
g156
sg15
g57
sg37
F85.75757575757575
sg38
Nsg39
(lp207
F16.0
aF40.0
aF41.0
aF59.0
aF60.0
aF87.0
aF90.0
aF91.0
aF93.0
aF91.0
aF102.0
aF96.0
aF92.0
aF89.0
aF91.0
aF110.0
aF110.0
aF116.0
aF116.0
aF118.0
aF116.0
aF105.0
aF104.0
aF89.0
aF95.0
aF92.0
aF89.0
aF89.0
aF84.0
aF82.0
aF78.0
aF66.0
aF33.0
asg41
F16.0
sbasbsg37
F11.972222222222221
sg38
Nsg39
(lp208
F16.0
aF16.0
aF16.0
aF14.0
aF14.0
aF11.0
aF13.0
aF14.0
aF13.0
aF11.0
aF12.0
aF11.0
aF11.0
aF11.0
aF12.0
aF11.0
aF11.0
aF11.0
aF12.0
aF11.0
aF11.0
aF11.0
aF11.0
aF10.0
aF11.0
aF11.0
aF11.0
aF11.0
aF13.0
aF11.0
aF13.0
aF11.0
aF11.0
aF11.0
aF12.0
aF11.0
asg41
F10.0
sbasbsg37
F72.87096774193549
sg38
Nsg39
(lp209
F59.0
aF65.0
aF67.0
aF73.0
aF77.0
aF95.0
aF95.0
aF96.0
aF114.0
aF113.0
aF114.0
aF112.0
aF111.0
aF111.0
aF111.0
aF110.0
aF90.0
aF80.0
aF78.0
aF74.0
aF66.0
aF60.0
aF50.0
aF46.0
aF41.0
aF32.0
aF30.0
aF32.0
aF17.0
aF21.0
aF19.0
asg41
F17.0
sba(iSumoPathFinding.sumoPathFinding.cityMap
Edge
p210
(dp211
g12
F39.0
sg6
S'15'
p212
sg14
g46
sg15
g90
sg37
F16.6
sg38
Nsg39
(lp213
F25.0
aF39.0
aF28.0
aF15.0
aF14.0
aF19.0
aF18.0
aF18.0
aF13.0
aF13.0
aF13.0
aF13.0
aF14.0
aF14.0
aF14.0
aF12.0
aF13.0
aF13.0
aF13.0
aF11.0
asg41
F11.0
sbasbsg37
F101.8076923076923
sg38
Nsg39
(lp214
F21.0
aF23.0
aF21.0
aF39.0
aF78.0
aF107.0
aF139.0
aF156.0
aF148.0
aF143.0
aF144.0
aF143.0
aF135.0
aF127.0
aF122.0
aF122.0
aF116.0
aF116.0
aF115.0
aF113.0
aF113.0
aF107.0
aF102.0
aF86.0
aF82.0
aF29.0
asg41
F21.0
sba(iSumoPathFinding.sumoPathFinding.cityMap
Edge
p215
(dp216
g12
F19.0
sg6
S'7'
p217
sg14
g23
sg15
(iSumoPathFinding.sumoPathFinding.cityMap
Vertex
p218
(dp219
g6
S'6'
p220
sg8
(lp221
(iSumoPathFinding.sumoPathFinding.cityMap
Edge
p222
(dp223
g12
F22.0
sg6
S'-7'
p224
sg14
g218
sg15
g23
sg37
F18.583333333333332
sg38
Nsg39
(lp225
F20.0
aF21.0
aF20.0
aF19.0
aF18.0
aF18.0
aF20.0
aF22.0
aF18.0
aF17.0
aF15.0
aF15.0
asg41
F15.0
sbasbsg37
F16.923076923076923
sg38
Nsg39
(lp226
F16.0
aF19.0
aF19.0
aF18.0
aF18.0
aF16.0
aF19.0
aF15.0
aF15.0
aF17.0
aF16.0
aF16.0
aF16.0
asg41
F15.0
sba(iSumoPathFinding.sumoPathFinding.cityMap
Edge
p227
(dp228
g12
F162.0
sg6
S'9'
p229
sg14
g23
sg15
g16
sg37
F116.16666666666667
sg38
Nsg39
(lp230
F20.0
aF18.0
aF33.0
aF43.0
aF41.0
aF55.0
aF62.0
aF134.0
aF132.0
aF134.0
aF134.0
aF133.0
aF129.0
aF136.0
aF136.0
aF143.0
aF144.0
aF162.0
aF160.0
aF157.0
aF158.0
aF155.0
aF155.0
aF141.0
aF142.0
aF136.0
aF129.0
aF125.0
aF121.0
aF117.0
asg41
F18.0
sbasbsg37
F44.193548387096776
sg38
Nsg39
(lp231
F19.0
aF19.0
aF30.0
aF84.0
aF83.0
aF82.0
aF82.0
aF67.0
aF68.0
aF63.0
aF62.0
aF61.0
aF59.0
aF60.0
aF51.0
aF50.0
aF42.0
aF44.0
aF44.0
aF39.0
aF37.0
aF43.0
aF44.0
aF19.0
aF19.0
aF17.0
aF17.0
aF17.0
aF15.0
aF17.0
aF16.0
asg41
F15.0
sba(iSumoPathFinding.sumoPathFinding.cityMap
Edge
p232
(dp233
g12
F34.0
sg6
S'17'
p234
sg14
g16
sg15
g57
sg37
F20.615384615384617
sg38
Nsg39
(lp235
F21.0
aF17.0
aF20.0
aF20.0
aF20.0
aF19.0
aF16.0
aF17.0
aF22.0
aF25.0
aF24.0
aF26.0
aF34.0
aF32.0
aF30.0
aF29.0
aF29.0
aF29.0
aF28.0
aF18.0
aF16.0
aF16.0
aF17.0
aF16.0
aF16.0
aF18.0
aF17.0
aF18.0
aF19.0
aF19.0
aF20.0
aF19.0
aF18.0
aF17.0
aF18.0
aF16.0
aF16.0
aF16.0
aF16.0
asg41
F16.0
sba(iSumoPathFinding.sumoPathFinding.cityMap
Edge
p236
(dp237
g12
F31.0
sg6
S'19'
p238
sg14
g16
sg15
g163
sg37
F18.076923076923077
sg38
Nsg39
(lp239
F15.0
aF18.0
aF22.0
aF24.0
aF29.0
aF31.0
aF24.0
aF23.0
aF18.0
aF14.0
aF15.0
aF20.0
aF16.0
aF17.0
aF15.0
aF14.0
aF14.0
aF16.0
aF15.0
aF15.0
aF17.0
aF16.0
aF14.0
aF16.0
aF16.0
aF16.0
asg41
F14.0
sba(iSumoPathFinding.sumoPathFinding.cityMap
Edge
p240
(dp241
g12
F58.0
sg6
S'25'
p242
sg14
g16
sg15
g4
sg37
F27.142857142857142
sg38
Nsg39
(lp243
F17.0
aF18.0
aF46.0
aF47.0
aF57.0
aF49.0
aF58.0
aF53.0
aF56.0
aF54.0
aF50.0
aF40.0
aF40.0
aF42.0
aF24.0
aF24.0
aF25.0
aF24.0
aF17.0
aF17.0
aF18.0
aF17.0
aF18.0
aF19.0
aF17.0
aF17.0
aF17.0
aF18.0
aF16.0
aF17.0
aF17.0
aF19.0
aF16.0
aF19.0
aF17.0
aF16.0
aF17.0
aF18.0
aF18.0
aF17.0
aF17.0
aF17.0
asg41
F16.0
sbasbsg37
F17.869565217391305
sg38
Nsg39
(lp244
F18.0
aF18.0
aF16.0
aF18.0
aF21.0
aF19.0
aF19.0
aF17.0
aF17.0
aF16.0
aF16.0
aF16.0
aF16.0
aF18.0
aF16.0
aF17.0
aF18.0
aF18.0
aF16.0
aF15.0
aF17.0
aF16.0
aF18.0
aF17.0
aF22.0
aF23.0
aF23.0
aF21.0
aF21.0
aF20.0
aF20.0
aF20.0
aF17.0
aF16.0
aF15.0
aF18.0
aF20.0
aF19.0
aF18.0
aF19.0
aF17.0
aF16.0
aF16.0
aF16.0
aF16.0
aF16.0
asg41
F15.0
sba(iSumoPathFinding.sumoPathFinding.cityMap
Edge
p245
(dp246
g12
F20.0
sg6
S'126'
p247
sg14
g4
sg15
g190
sg37
F18.11111111111111
sg38
Nsg39
(lp248
F20.0
aF20.0
aF19.0
aF20.0
aF20.0
aF19.0
aF19.0
aF17.0
aF17.0
aF20.0
aF17.0
aF16.0
aF17.0
aF17.0
aF17.0
aF17.0
aF17.0
aF17.0
asg41
F16.0
sba(iSumoPathFinding.sumoPathFinding.cityMap
Edge
p249
(dp250
g12
F11.0
sg6
S'128'
p251
sg14
g4
sg15
(iSumoPathFinding.sumoPathFinding.cityMap
Vertex
p252
(dp253
g6
S'127'
p254
sg8
(lp255
(iSumoPathFinding.sumoPathFinding.cityMap
Edge
p256
(dp257
g12
F78.0
sg6
S'-128'
p258
sg14
g252
sg15
g4
sg37
F58.15384615384615
sg38
Nsg39
(lp259
F60.0
aF77.0
aF76.0
aF76.0
aF78.0
aF74.0
aF74.0
aF71.0
aF69.0
aF38.0
aF33.0
aF22.0
aF8.0
asg41
F8.0
sbasbsg37
F9.3
sg38
Nsg39
(lp260
F11.0
aF11.0
aF11.0
aF11.0
aF8.0
aF9.0
aF8.0
aF8.0
aF8.0
aF8.0
asg41
F8.0
sba(iSumoPathFinding.sumoPathFinding.cityMap
Edge
p261
(dp262
g12
F19.0
sg6
S'138'
p263
sg14
g4
sg15
(iSumoPathFinding.sumoPathFinding.cityMap
Vertex
p264
(dp265
g6
S'137'
p266
sg8
(lp267
(iSumoPathFinding.sumoPathFinding.cityMap
Edge
p268
(dp269
g12
F20.0
sg6
S'-138'
p270
sg14
g264
sg15
g4
sg37
F17.5
sg38
Nsg39
(lp271
F19.0
aF19.0
aF19.0
aF19.0
aF19.0
aF19.0
aF19.0
aF16.0
aF19.0
aF16.0
aF16.0
aF17.0
aF20.0
aF19.0
aF16.0
aF16.0
aF17.0
aF16.0
aF18.0
aF16.0
aF17.0
aF16.0
aF17.0
aF15.0
asg41
F15.0
sbasbsg37
F17.68421052631579
sg38
Nsg39
(lp272
F19.0
aF16.0
aF19.0
aF19.0
aF19.0
aF19.0
aF17.0
aF19.0
aF19.0
aF19.0
aF19.0
aF19.0
aF17.0
aF16.0
aF16.0
aF16.0
aF16.0
aF16.0
aF16.0
asg41
F16.0
sba(iSumoPathFinding.sumoPathFinding.cityMap
Edge
p273
(dp274
g12
F14.0
sg6
S'210'
p275
sg14
g4
sg15
(iSumoPathFinding.sumoPathFinding.cityMap
Vertex
p276
(dp277
g6
S'209'
p278
sg8
(lp279
(iSumoPathFinding.sumoPathFinding.cityMap
Edge
p280
(dp281
g12
F77.0
sg6
S'-210'
p282
sg14
g276
sg15
g4
sg37
F29.833333333333332
sg38
Nsg39
(lp283
F15.0
aF15.0
aF67.0
aF50.0
aF50.0
aF77.0
aF32.0
aF11.0
aF10.0
aF11.0
aF10.0
aF10.0
asg41
F10.0
sbasbsg37
F11.23076923076923
sg38
Nsg39
(lp284
F13.0
aF13.0
aF14.0
aF11.0
aF11.0
aF11.0
aF10.0
aF11.0
aF10.0
aF10.0
aF10.0
aF11.0
aF11.0
asg41
F10.0
sbasbag30
ag57
ag126
ag90
ag276
ag163
ag218
ag83
ag23
ag178
ag46
ag190
ag16
ag138
ag252
ag264
ag72
ag105
ag156
asb.