(iSumoPathFinding.sumoPathFinding.cityMap
CityMap
p0
(dp1
S'vertexes'
p2
(lp3
(iSumoPathFinding.sumoPathFinding.cityMap
Vertex
p4
(dp5
S'sumo_id'
p6
S'24'
p7
sS'edges'
p8
(lp9
(iSumoPathFinding.sumoPathFinding.cityMap
Edge
p10
(dp11
S'maximum_cost'
p12
F23.0
sg6
S'-25'
p13
sS'vertex1'
p14
g4
sS'vertex2'
p15
(iSumoPathFinding.sumoPathFinding.cityMap
Vertex
p16
(dp17
g6
S'8'
p18
sg8
(lp19
(iSumoPathFinding.sumoPathFinding.cityMap
Edge
p20
(dp21
g12
F84.0
sg6
S'-9'
p22
sg14
g16
sg15
(iSumoPathFinding.sumoPathFinding.cityMap
Vertex
p23
(dp24
g6
S'1'
p25
sg8
(lp26
(iSumoPathFinding.sumoPathFinding.cityMap
Edge
p27
(dp28
g12
F16.0
sg6
S'11'
p29
sg14
g23
sg15
(iSumoPathFinding.sumoPathFinding.cityMap
Vertex
p30
(dp31
g6
S'10'
p32
sg8
(lp33
(iSumoPathFinding.sumoPathFinding.cityMap
Edge
p34
(dp35
g12
F77.0
sg6
S'-11'
p36
sg14
g30
sg15
g23
sS'medium_cost'
p37
F42.8235294117647
sS'minimum_cost'
p38
F12.0
sbasbsg37
F13.076923076923077
sg38
F12.0
sba(iSumoPathFinding.sumoPathFinding.cityMap
Edge
p39
(dp40
g12
F156.0
sg6
S'3'
p41
sg14
g23
sg15
(iSumoPathFinding.sumoPathFinding.cityMap
Vertex
p42
(dp43
g6
S'2'
p44
sg8
(lp45
(iSumoPathFinding.sumoPathFinding.cityMap
Edge
p46
(dp47
g12
F22.0
sg6
S'-3'
p48
sg14
g42
sg15
g23
sg37
F19.296296296296298
sg38
F16.0
sba(iSumoPathFinding.sumoPathFinding.cityMap
Edge
p49
(dp50
g12
F114.0
sg6
S'13'
p51
sg14
g42
sg15
(iSumoPathFinding.sumoPathFinding.cityMap
Vertex
p52
(dp53
g6
S'12'
p54
sg8
(lp55
(iSumoPathFinding.sumoPathFinding.cityMap
Edge
p56
(dp57
g12
F31.0
sg6
S'-13'
p58
sg14
g52
sg15
g42
sg37
F17.516129032258064
sg38
F10.0
sba(iSumoPathFinding.sumoPathFinding.cityMap
Edge
p59
(dp60
g12
F50.0
sg6
S'-17'
p61
sg14
g52
sg15
g16
sg37
F31.023255813953487
sg38
F16.0
sba(iSumoPathFinding.sumoPathFinding.cityMap
Edge
p62
(dp63
g12
F16.0
sg6
S'116'
p64
sg14
g52
sg15
(iSumoPathFinding.sumoPathFinding.cityMap
Vertex
p65
(dp66
g6
S'115'
p67
sg8
(lp68
(iSumoPathFinding.sumoPathFinding.cityMap
Edge
p69
(dp70
g12
F86.0
sg6
S'-116'
p71
sg14
g65
sg15
g52
sg37
F38.785714285714285
sg38
F12.0
sba(iSumoPathFinding.sumoPathFinding.cityMap
Edge
p72
(dp73
g12
F53.0
sg6
S'-313'
p74
sg14
g65
sg15
(iSumoPathFinding.sumoPathFinding.cityMap
Vertex
p75
(dp76
g6
S'37'
p77
sg8
(lp78
(iSumoPathFinding.sumoPathFinding.cityMap
Edge
p79
(dp80
g12
F14.0
sg6
S'-117'
p81
sg14
g75
sg15
(iSumoPathFinding.sumoPathFinding.cityMap
Vertex
p82
(dp83
g6
S'14'
p84
sg8
(lp85
(iSumoPathFinding.sumoPathFinding.cityMap
Edge
p86
(dp87
g12
F87.0
sg6
S'-15'
p88
sg14
g82
sg15
g42
sg37
F29.12
sg38
F11.0
sba(iSumoPathFinding.sumoPathFinding.cityMap
Edge
p89
(dp90
g12
F71.0
sg6
S'117'
p91
sg14
g82
sg15
g75
sg37
F31.857142857142858
sg38
F10.0
sba(iSumoPathFinding.sumoPathFinding.cityMap
Edge
p92
(dp93
g12
F12.0
sg6
S'119'
p94
sg14
g82
sg15
(iSumoPathFinding.sumoPathFinding.cityMap
Vertex
p95
(dp96
g6
S'118'
p97
sg8
(lp98
(iSumoPathFinding.sumoPathFinding.cityMap
Edge
p99
(dp100
g12
F18.0
sg6
S'-119'
p101
sg14
g95
sg15
g82
sg37
F12.714285714285714
sg38
F8.0
sbasbsg37
F10.454545454545455
sg38
F9.0
sbasbsg37
F9.882352941176471
sg38
F8.0
sba(iSumoPathFinding.sumoPathFinding.cityMap
Edge
p102
(dp103
g12
F29.0
sg6
S'-38'
p104
sg14
g75
sg15
g52
sg37
F18.151515151515152
sg38
F13.0
sba(iSumoPathFinding.sumoPathFinding.cityMap
Edge
p105
(dp106
g12
F16.0
sg6
S'313'
p107
sg14
g75
sg15
g65
sg37
F13.0
sg38
F12.0
sba(iSumoPathFinding.sumoPathFinding.cityMap
Edge
p108
(dp109
g12
F21.0
sg6
S'319'
p110
sg14
g75
sg15
(iSumoPathFinding.sumoPathFinding.cityMap
Vertex
p111
(dp112
g6
S'318'
p113
sg8
(lp114
(iSumoPathFinding.sumoPathFinding.cityMap
Edge
p115
(dp116
g12
F22.0
sg6
S'-319'
p117
sg14
g111
sg15
g75
sg37
F17.96
sg38
F15.0
sbasbsg37
F17.869565217391305
sg38
F16.0
sba(iSumoPathFinding.sumoPathFinding.cityMap
Edge
p118
(dp119
g12
F15.0
sg6
S'325'
p120
sg14
g75
sg15
(iSumoPathFinding.sumoPathFinding.cityMap
Vertex
p121
(dp122
g6
S'324'
p123
sg8
(lp124
(iSumoPathFinding.sumoPathFinding.cityMap
Edge
p125
(dp126
g12
F65.0
sg6
S'-325'
p127
sg14
g121
sg15
g75
sg37
F41.38461538461539
sg38
F11.0
sbasbsg37
F12.642857142857142
sg38
F11.0
sbasbsg37
F31.0
sg38
F12.0
sbasbsg37
F12.923076923076923
sg38
F11.0
sba(iSumoPathFinding.sumoPathFinding.cityMap
Edge
p128
(dp129
g12
F18.0
sg6
S'38'
p130
sg14
g52
sg15
g75
sg37
F14.576923076923077
sg38
F12.0
sba(iSumoPathFinding.sumoPathFinding.cityMap
Edge
p131
(dp132
g12
F16.0
sg6
S'64'
p133
sg14
g52
sg15
(iSumoPathFinding.sumoPathFinding.cityMap
Vertex
p134
(dp135
g6
S'63'
p136
sg8
(lp137
(iSumoPathFinding.sumoPathFinding.cityMap
Edge
p138
(dp139
g12
F60.0
sg6
S'-121'
p140
sg14
g134
sg15
(iSumoPathFinding.sumoPathFinding.cityMap
Vertex
p141
(dp142
g6
S'18'
p143
sg8
(lp144
(iSumoPathFinding.sumoPathFinding.cityMap
Edge
p145
(dp146
g12
F136.0
sg6
S'-19'
p147
sg14
g141
sg15
g16
sg37
F104.30434782608695
sg38
F17.0
sba(iSumoPathFinding.sumoPathFinding.cityMap
Edge
p148
(dp149
g12
F55.0
sg6
S'121'
p150
sg14
g141
sg15
g134
sg37
F24.34375
sg38
F15.0
sba(iSumoPathFinding.sumoPathFinding.cityMap
Edge
p151
(dp152
g12
F15.0
sg6
S'123'
p153
sg14
g141
sg15
(iSumoPathFinding.sumoPathFinding.cityMap
Vertex
p154
(dp155
g6
S'122'
p156
sg8
(lp157
(iSumoPathFinding.sumoPathFinding.cityMap
Edge
p158
(dp159
g12
F44.0
sg6
S'-123'
p160
sg14
g154
sg15
g141
sg37
F22.8
sg38
F11.0
sbasbsg37
F12.0
sg38
F11.0
sba(iSumoPathFinding.sumoPathFinding.cityMap
Edge
p161
(dp162
g12
F20.0
sg6
S'125'
p163
sg14
g141
sg15
(iSumoPathFinding.sumoPathFinding.cityMap
Vertex
p164
(dp165
g6
S'124'
p166
sg8
(lp167
(iSumoPathFinding.sumoPathFinding.cityMap
Edge
p168
(dp169
g12
F17.0
sg6
S'-125'
p170
sg14
g164
sg15
g141
sg37
F14.4375
sg38
F13.0
sba(iSumoPathFinding.sumoPathFinding.cityMap
Edge
p171
(dp172
g12
F32.0
sg6
S'-126'
p173
sg14
g164
sg15
g4
sg37
F20.4
sg38
F16.0
sbasbsg37
F14.941176470588236
sg38
F13.0
sbasbsg37
F32.71875
sg38
F15.0
sba(iSumoPathFinding.sumoPathFinding.cityMap
Edge
p174
(dp175
g12
F118.0
sg6
S'-64'
p176
sg14
g134
sg15
g52
sg37
F85.75757575757575
sg38
F16.0
sbasbsg37
F11.972222222222221
sg38
F10.0
sbasbsg37
F72.87096774193549
sg38
F17.0
sba(iSumoPathFinding.sumoPathFinding.cityMap
Edge
p177
(dp178
g12
F39.0
sg6
S'15'
p179
sg14
g42
sg15
g82
sg37
F16.6
sg38
F11.0
sbasbsg37
F101.8076923076923
sg38
F21.0
sba(iSumoPathFinding.sumoPathFinding.cityMap
Edge
p180
(dp181
g12
F19.0
sg6
S'7'
p182
sg14
g23
sg15
(iSumoPathFinding.sumoPathFinding.cityMap
Vertex
p183
(dp184
g6
S'6'
p185
sg8
(lp186
(iSumoPathFinding.sumoPathFinding.cityMap
Edge
p187
(dp188
g12
F22.0
sg6
S'-7'
p189
sg14
g183
sg15
g23
sg37
F18.583333333333332
sg38
F15.0
sbasbsg37
F16.923076923076923
sg38
F15.0
sba(iSumoPathFinding.sumoPathFinding.cityMap
Edge
p190
(dp191
g12
F162.0
sg6
S'9'
p192
sg14
g23
sg15
g16
sg37
F116.16666666666667
sg38
F18.0
sbasbsg37
F44.193548387096776
sg38
F15.0
sba(iSumoPathFinding.sumoPathFinding.cityMap
Edge
p193
(dp194
g12
F34.0
sg6
S'17'
p195
sg14
g16
sg15
g52
sg37
F20.615384615384617
sg38
F16.0
sba(iSumoPathFinding.sumoPathFinding.cityMap
Edge
p196
(dp197
g12
F31.0
sg6
S'19'
p198
sg14
g16
sg15
g141
sg37
F18.076923076923077
sg38
F14.0
sba(iSumoPathFinding.sumoPathFinding.cityMap
Edge
p199
(dp200
g12
F58.0
sg6
S'25'
p201
sg14
g16
sg15
g4
sg37
F27.142857142857142
sg38
F16.0
sbasbsg37
F17.869565217391305
sg38
F15.0
sba(iSumoPathFinding.sumoPathFinding.cityMap
Edge
p202
(dp203
g12
F20.0
sg6
S'126'
p204
sg14
g4
sg15
g164
sg37
F18.11111111111111
sg38
F16.0
sba(iSumoPathFinding.sumoPathFinding.cityMap
Edge
p205
(dp206
g12
F11.0
sg6
S'128'
p207
sg14
g4
sg15
(iSumoPathFinding.sumoPathFinding.cityMap
Vertex
p208
(dp209
g6
S'127'
p210
sg8
(lp211
(iSumoPathFinding.sumoPathFinding.cityMap
Edge
p212
(dp213
g12
F78.0
sg6
S'-128'
p214
sg14
g208
sg15
g4
sg37
F58.15384615384615
sg38
F8.0
sbasbsg37
F9.3
sg38
F8.0
sba(iSumoPathFinding.sumoPathFinding.cityMap
Edge
p215
(dp216
g12
F19.0
sg6
S'138'
p217
sg14
g4
sg15
(iSumoPathFinding.sumoPathFinding.cityMap
Vertex
p218
(dp219
g6
S'137'
p220
sg8
(lp221
(iSumoPathFinding.sumoPathFinding.cityMap
Edge
p222
(dp223
g12
F20.0
sg6
S'-138'
p224
sg14
g218
sg15
g4
sg37
F17.5
sg38
F15.0
sbasbsg37
F17.68421052631579
sg38
F16.0
sba(iSumoPathFinding.sumoPathFinding.cityMap
Edge
p225
(dp226
g12
F14.0
sg6
S'210'
p227
sg14
g4
sg15
(iSumoPathFinding.sumoPathFinding.cityMap
Vertex
p228
(dp229
g6
S'209'
p230
sg8
(lp231
(iSumoPathFinding.sumoPathFinding.cityMap
Edge
p232
(dp233
g12
F77.0
sg6
S'-210'
p234
sg14
g228
sg15
g4
sg37
F29.833333333333332
sg38
F10.0
sbasbsg37
F11.23076923076923
sg38
F10.0
sbasbag30
ag52
ag111
ag82
ag228
ag141
ag183
ag75
ag23
ag154
ag42
ag164
ag16
ag121
ag208
ag218
ag65
ag95
ag134
asb.